target datalayout = "e-m:e-p270:32:32-p271:32:32-p272:64:64-i64:64-i128:128-f80:128-n8:16:32:64-S128"
target triple = "x86_64-pc-linux-gnu"

%class.substitution_tree = type { ptr, %class.ptr_vector, i32, %class.ptr_vector.0, i32, %class.ptr_vector.2, i32, %class.bit_vector, %class.svector, %class.svector.5, %class.svector.5, ptr, %class.ptr_vector, i32, i32, i32, %class.svector.7 }
%class.ptr_vector.0 = type { %class.vector.1 }
%class.vector.1 = type { ptr }
%class.ptr_vector.2 = type { %class.vector.3 }
%class.vector.3 = type { ptr }
%class.bit_vector = type { i32, i32, ptr }
%class.svector = type { %class.vector.4 }
%class.vector.4 = type { ptr }
%class.svector.5 = type { %class.vector.6 }
%class.vector.6 = type { ptr }
%class.ptr_vector = type { %class.vector }
%class.vector = type { ptr }
%class.svector.7 = type { %class.vector.8 }
%class.vector.8 = type { ptr }
%"struct.substitution_tree::node" = type { i8, %class.svector.5, ptr, %union.anon }
%union.anon = type { ptr }

; Function Attrs: mustprogress nounwind uwtable
define linkonce_odr hidden noundef nonnull align 8 dereferenceable(8) ptr @_ZN6vectorIPN17substitution_tree4nodeELb0EjEixEj(ptr noundef nonnull align 8 dereferenceable(8) %0, i32 noundef %1) #6 comdat align 2 {
  %3 = alloca ptr, align 8
  %4 = alloca i32, align 4
  store ptr %0, ptr %3, align 8, !tbaa !126
  store i32 %1, ptr %4, align 4, !tbaa !33
  %5 = load ptr, ptr %3, align 8
  %6 = getelementptr inbounds nuw %class.vector, ptr %5, i32 0, i32 0
  %7 = load ptr, ptr %6, align 8, !tbaa !128
  %8 = load i32, ptr %4, align 4, !tbaa !33
  %9 = zext i32 %8 to i64
  %10 = getelementptr inbounds nuw ptr, ptr %7, i64 %9
  ret ptr %10
}

; Function Attrs: mustprogress nounwind uwtable
define linkonce_odr hidden noundef i32 @_ZNK6vectorIPN17substitution_tree4nodeELb0EjE4sizeEv(ptr noundef nonnull align 8 dereferenceable(8) %0) #6 comdat align 2 {
  %2 = alloca i32, align 4
  %3 = alloca ptr, align 8
  store ptr %0, ptr %3, align 8, !tbaa !126
  %4 = load ptr, ptr %3, align 8
  %5 = getelementptr inbounds nuw %class.vector, ptr %4, i32 0, i32 0
  %6 = load ptr, ptr %5, align 8, !tbaa !128
  %7 = icmp eq ptr %6, null
  br i1 %7, label %8, label %9

8:                                                ; preds = %1
  store i32 0, ptr %2, align 4
  br label %14

9:                                                ; preds = %1
  %10 = getelementptr inbounds nuw %class.vector, ptr %4, i32 0, i32 0
  %11 = load ptr, ptr %10, align 8, !tbaa !128
  %12 = getelementptr inbounds i32, ptr %11, i64 -1
  %13 = load i32, ptr %12, align 4, !tbaa !33
  store i32 %13, ptr %2, align 4
  br label %14

14:                                               ; preds = %9, %8
  %15 = load i32, ptr %2, align 4
  ret i32 %15
}

; Function Attrs: mustprogress nounwind uwtable
define linkonce_odr hidden void @_ZN6vectorIPN17substitution_tree4nodeELb0EjE8pop_backEv(ptr noundef nonnull align 8 dereferenceable(8) %0) #6 comdat align 2 {
  %2 = alloca ptr, align 8
  store ptr %0, ptr %2, align 8, !tbaa !126
  %3 = load ptr, ptr %2, align 8
  %4 = getelementptr inbounds nuw %class.vector, ptr %3, i32 0, i32 0
  %5 = load ptr, ptr %4, align 8, !tbaa !128
  %6 = getelementptr inbounds i32, ptr %5, i64 -1
  %7 = load i32, ptr %6, align 4, !tbaa !33
  %8 = add i32 %7, -1
  store i32 %8, ptr %6, align 4, !tbaa !33
  ret void
}

; Function Attrs: mustprogress nounwind uwtable
define linkonce_odr hidden noundef nonnull align 8 dereferenceable(8) ptr @_ZN6vectorIPN17substitution_tree4nodeELb0EjE4backEv(ptr noundef nonnull align 8 dereferenceable(8) %0) #6 comdat align 2 {
  %2 = alloca ptr, align 8
  store ptr %0, ptr %2, align 8, !tbaa !126
  %3 = load ptr, ptr %2, align 8
  %4 = call noundef i32 @_ZNK6vectorIPN17substitution_tree4nodeELb0EjE4sizeEv(ptr noundef nonnull align 8 dereferenceable(8) %3)
  %5 = sub i32 %4, 1
  %6 = call noundef nonnull align 8 dereferenceable(8) ptr @_ZN6vectorIPN17substitution_tree4nodeELb0EjEixEj(ptr noundef nonnull align 8 dereferenceable(8) %3, i32 noundef %5)
  ret ptr %6
}

; Function Attrs: mustprogress nounwind uwtable
define linkonce_odr hidden noundef zeroext i1 @_ZNK6vectorIPN17substitution_tree4nodeELb0EjE5emptyEv(ptr noundef nonnull align 8 dereferenceable(8) %0) #6 comdat align 2 {
  %2 = alloca ptr, align 8
  store ptr %0, ptr %2, align 8, !tbaa !126
  %3 = load ptr, ptr %2, align 8
  %4 = getelementptr inbounds nuw %class.vector, ptr %3, i32 0, i32 0
  %5 = load ptr, ptr %4, align 8, !tbaa !128
  %6 = icmp eq ptr %5, null
  br i1 %6, label %13, label %7

7:                                                ; preds = %1
  %8 = getelementptr inbounds nuw %class.vector, ptr %3, i32 0, i32 0
  %9 = load ptr, ptr %8, align 8, !tbaa !128
  %10 = getelementptr inbounds i32, ptr %9, i64 -1
  %11 = load i32, ptr %10, align 4, !tbaa !33
  %12 = icmp eq i32 %11, 0
  br label %13

13:                                               ; preds = %7, %1
  %14 = phi i1 [ true, %1 ], [ %12, %7 ]
  ret i1 %14
}

; Function Attrs: mustprogress uwtable
define hidden noundef zeroext i1 @_ZN17substitution_tree9backtrackEv(ptr noundef nonnull align 8 dereferenceable(136) %0) #4 align 2 {
  %2 = alloca i1, align 1
  %3 = alloca ptr, align 8
  %4 = alloca ptr, align 8
  %5 = alloca i32, align 4
  store ptr %0, ptr %3, align 8, !tbaa !3
  %6 = load ptr, ptr %3, align 8
  br label %7

7:                                                ; preds = %31, %1
  %8 = getelementptr inbounds nuw %class.substitution_tree, ptr %6, i32 0, i32 12
  %9 = call noundef zeroext i1 @_ZNK6vectorIPN17substitution_tree4nodeELb0EjE5emptyEv(ptr noundef nonnull align 8 dereferenceable(8) %8)
  %10 = xor i1 %9, true
  br i1 %10, label %11, label %32

11:                                               ; preds = %7
  %12 = getelementptr inbounds nuw %class.substitution_tree, ptr %6, i32 0, i32 11
  %13 = load ptr, ptr %12, align 8, !tbaa !173
  call void @_ZN12substitution9pop_scopeEj(ptr noundef nonnull align 8 dereferenceable(124) %13, i32 noundef 1)
  call void @llvm.lifetime.start.p0(i64 8, ptr %4) #3
  %14 = getelementptr inbounds nuw %class.substitution_tree, ptr %6, i32 0, i32 12
  %15 = call noundef nonnull align 8 dereferenceable(8) ptr @_ZN6vectorIPN17substitution_tree4nodeELb0EjE4backEv(ptr noundef nonnull align 8 dereferenceable(8) %14)
  %16 = load ptr, ptr %15, align 8, !tbaa !97
  store ptr %16, ptr %4, align 8, !tbaa !97
  %17 = load ptr, ptr %4, align 8, !tbaa !97
  %18 = getelementptr inbounds nuw %"struct.substitution_tree::node", ptr %17, i32 0, i32 2
  %19 = load ptr, ptr %18, align 8, !tbaa !100
  %20 = icmp ne ptr %19, null
  br i1 %20, label %21, label %27

21:                                               ; preds = %11
  %22 = load ptr, ptr %4, align 8, !tbaa !97
  %23 = getelementptr inbounds nuw %"struct.substitution_tree::node", ptr %22, i32 0, i32 2
  %24 = load ptr, ptr %23, align 8, !tbaa !100
  %25 = getelementptr inbounds nuw %class.substitution_tree, ptr %6, i32 0, i32 12
  %26 = call noundef nonnull align 8 dereferenceable(8) ptr @_ZN6vectorIPN17substitution_tree4nodeELb0EjE4backEv(ptr noundef nonnull align 8 dereferenceable(8) %25)
  store ptr %24, ptr %26, align 8, !tbaa !97
  store i1 true, ptr %2, align 1
  store i32 1, ptr %5, align 4
  br label %29

27:                                               ; preds = %11
  %28 = getelementptr inbounds nuw %class.substitution_tree, ptr %6, i32 0, i32 12
  call void @_ZN6vectorIPN17substitution_tree4nodeELb0EjE8pop_backEv(ptr noundef nonnull align 8 dereferenceable(8) %28)
  store i32 0, ptr %5, align 4
  br label %29

29:                                               ; preds = %27, %21
  call void @llvm.lifetime.end.p0(i64 8, ptr %4) #3
  %30 = load i32, ptr %5, align 4
  switch i32 %30, label %35 [
    i32 0, label %31
    i32 1, label %33
  ]

31:                                               ; preds = %29
  br label %7, !llvm.loop !174

32:                                               ; preds = %7
  store i1 false, ptr %2, align 1
  br label %33

33:                                               ; preds = %32, %29
  %34 = load i1, ptr %2, align 1
  ret i1 %34

35:                                               ; preds = %29
  unreachable
}