; Function Attrs: mustprogress uwtable
define hidden noundef zeroext i1 @_ZN17substitution_tree9backtrackEv(ptr noundef nonnull readonly align 8 captures(none) dereferenceable(136) %0) local_unnamed_addr #5 align 2 {
  %2 = getelementptr inbounds nuw i8, ptr %0, i64 104
  %3 = load ptr, ptr %2, align 8, !tbaa !96
  %4 = icmp eq ptr %3, null
  br i1 %4, label %_ZNK6vectorIPN17substitution_tree4nodeELb0EjE5emptyEv.exit.thread, label %_ZNK6vectorIPN17substitution_tree4nodeELb0EjE5emptyEv.exit.lr.ph

_ZNK6vectorIPN17substitution_tree4nodeELb0EjE5emptyEv.exit.lr.ph: ; preds = %1
  %5 = getelementptr inbounds nuw i8, ptr %0, i64 96
  %.phi.trans.insert = getelementptr inbounds i8, ptr %3, i64 -4
  %.pre = load i32, ptr %.phi.trans.insert, align 4, !tbaa !33
  %6 = icmp eq i32 %.pre, 0
  br i1 %6, label %_ZNK6vectorIPN17substitution_tree4nodeELb0EjE5emptyEv.exit.thread, label %.lr.ph

.lr.ph:                                           ; preds = %_ZNK6vectorIPN17substitution_tree4nodeELb0EjE5emptyEv.exit.lr.ph, %_ZNK6vectorIPN17substitution_tree4nodeELb0EjE5emptyEv.exit
  %7 = load ptr, ptr %5, align 8, !tbaa !131
  tail call void @_ZN12substitution9pop_scopeEj(ptr noundef nonnull align 8 dereferenceable(124) %7, i32 noundef 1)
  %8 = load ptr, ptr %2, align 8, !tbaa !96
  %9 = icmp eq ptr %8, null
  br i1 %9, label %_ZN6vectorIPN17substitution_tree4nodeELb0EjE4backEv.exit, label %10

10:                                               ; preds = %.lr.ph
  %11 = getelementptr inbounds i8, ptr %8, i64 -4
  %12 = load i32, ptr %11, align 4, !tbaa !33
  %13 = add i32 %12, -1
  %14 = zext i32 %13 to i64
  br label %_ZN6vectorIPN17substitution_tree4nodeELb0EjE4backEv.exit

_ZN6vectorIPN17substitution_tree4nodeELb0EjE4backEv.exit: ; preds = %.lr.ph, %10
  %.0.i.i = phi i64 [ %14, %10 ], [ 4294967295, %.lr.ph ]
  %15 = getelementptr inbounds nuw ptr, ptr %8, i64 %.0.i.i
  %16 = load ptr, ptr %15, align 8, !tbaa !98
  %17 = getelementptr inbounds nuw i8, ptr %16, i64 16
  %18 = load ptr, ptr %17, align 8, !tbaa !101
  %.not.not = icmp eq ptr %18, null
  %19 = getelementptr inbounds i8, ptr %8, i64 -4
  %20 = load i32, ptr %19, align 4, !tbaa !33
  %21 = add i32 %20, -1
  br i1 %.not.not, label %_ZNK6vectorIPN17substitution_tree4nodeELb0EjE5emptyEv.exit, label %.thread

.thread:                                          ; preds = %_ZN6vectorIPN17substitution_tree4nodeELb0EjE4backEv.exit
  %22 = zext i32 %21 to i64
  %23 = getelementptr inbounds nuw ptr, ptr %8, i64 %22
  store ptr %18, ptr %23, align 8, !tbaa !98
  br label %_ZNK6vectorIPN17substitution_tree4nodeELb0EjE5emptyEv.exit.thread

_ZNK6vectorIPN17substitution_tree4nodeELb0EjE5emptyEv.exit: ; preds = %_ZN6vectorIPN17substitution_tree4nodeELb0EjE4backEv.exit
  store i32 %21, ptr %19, align 4, !tbaa !33
  %24 = icmp eq i32 %21, 0
  br i1 %24, label %_ZNK6vectorIPN17substitution_tree4nodeELb0EjE5emptyEv.exit.thread, label %.lr.ph

_ZNK6vectorIPN17substitution_tree4nodeELb0EjE5emptyEv.exit.thread: ; preds = %_ZNK6vectorIPN17substitution_tree4nodeELb0EjE5emptyEv.exit, %_ZNK6vectorIPN17substitution_tree4nodeELb0EjE5emptyEv.exit.lr.ph, %1, %.thread
  %.2 = phi i1 [ true, %.thread ], [ false, %1 ], [ false, %_ZNK6vectorIPN17substitution_tree4nodeELb0EjE5emptyEv.exit.lr.ph ], [ false, %_ZNK6vectorIPN17substitution_tree4nodeELb0EjE5emptyEv.exit ]
  ret i1 %.2
}